(dp0
S'uw;'
p1
I80
sS'y;'
p2
I92
sS'own'
p3
I70
sS'd;'
p4
I88
sS'uh;'
p5
I107
sS'SIL'
p6
I2
sS'ae;'
p7
I81
sS'sh;'
p8
I78
sS'tq'
p9
I41
sS'th'
p10
I22
sS'jh;'
p11
I83
sS'iyn'
p12
I102
sS'em;'
p13
I59
sS'VOCNOISE'
p14
I7
sS'ih+1'
p15
I121
sS'dh'
p16
I48
sS'uhn'
p17
I110
sS'g;'
p18
I95
sS'ey+1'
p19
I122
sS'm;'
p20
I62
sS'dx'
p21
I24
sS'ao+1'
p22
I117
sS'd'
p23
I13
sS't;'
p24
I79
sS'{B_TRANS}'
p25
I1
sS'ah+1'
p26
I116
sS'l'
p27
I12
sS'p'
p28
I33
sS't'
p29
I19
sS'l;'
p30
I64
sS'aen'
p31
I85
sS'em'
p32
I51
sS'el'
p33
I38
sS'en'
p34
I50
sS'zh'
p35
I61
sS'eh'
p36
I18
sS'{E_TRANS}'
p37
I54
sS'ey'
p38
I29
sS'er'
p39
I23
sS'el;'
p40
I90
sS'aw+1'
p41
I125
sS'LAUGH'
p42
I52
sS'uw+1'
p43
I114
sS'ayn'
p44
I75
sS'jh'
p45
I36
sS'z;'
p46
I96
sS'ae+1'
p47
I119
sS'<EXCLUDE-name>'
p48
I10
sS'ch;'
p49
I105
sS'g'
p50
I35
sS'k'
p51
I5
sS'r;'
p52
I73
sS's'
p53
I17
sS'oy'
p54
I49
sS'ow'
p55
I26
sS'ng;'
p56
I93
sS'aa'
p57
I37
sS'ch'
p58
I40
sS'UNKNOWN'
p59
I84
sS'ahn'
p60
I100
sS'ihn'
p61
I53
sS'aw;'
p62
I97
sS'eyn'
p63
I106
sS'NOISE'
p64
I3
sS'zh;'
p65
I108
sS'er;'
p66
I63
sS'ehn'
p67
I28
sS'ihn;'
p68
I112
sS'iy;'
p69
I76
sS'ih;'
p70
I58
sS'hh'
p71
I43
sS'ow;'
p72
I74
sS'ah;'
p73
I60
sS'ay+1'
p74
I118
sS'ow+1'
p75
I113
sS'<exclude-Name>'
p76
I111
sS'b'
p77
I16
sS'aa+1'
p78
I120
sS'f'
p79
I21
sS'p;'
p80
I86
sS'uw'
p81
I44
sS'aan'
p82
I94
sS'eh;'
p83
I56
sS'n'
p84
I15
sS'IVER'
p85
I4
sS'r'
p86
I20
sS'uh'
p87
I39
sS'ay;'
p88
I69
sS'v'
p89
I11
sS'ey;'
p90
I55
sS'z'
p91
I30
sS'iy'
p92
I25
sS'ae'
p93
I42
sS'ah'
p94
I8
sS'f;'
p95
I71
sS'ao'
p96
I47
sS'ih'
p97
I14
sS'aw'
p98
I46
sS'ay'
p99
I6
sS'ao;'
p100
I103
sS'uh+1'
p101
I123
sS's;'
p102
I72
sS'th;'
p103
I91
sS'eng'
p104
I101
sS'iy+1'
p105
I115
sS'nx;'
p106
I65
sS'ng'
p107
I45
sS'nx'
p108
I32
sS'n;'
p109
I77
sS'k;'
p110
I82
sS'b;'
p111
I98
sS'dx;'
p112
I57
sS'w'
p113
I31
sS'eh+1'
p114
I124
sS'awn'
p115
I104
sS'eng;'
p116
I109
sS'v;'
p117
I89
sS'aa;'
p118
I68
sS'oy;'
p119
I99
sS'm'
p120
I9
sS'sh'
p121
I34
sS'dh;'
p122
I87
sS'y'
p123
I27
sS'en;'
p124
I66
sS'tq;'
p125
I67
s.